


ARM Macro Assembler    Page 1 


    1 00000000         
    2 00000000 E000ED04 
                       NVIC_INT_CTRL
                               EQU              0xE000ED04  ; дёӯж–ӯжҺ§еҲ¶еҜ„еӯ
                                                            ҳеҷЁ
    3 00000000 E000ED22 
                       NVIC_SYSPRI14
                               EQU              0xE000ED22  ; зі»з»ҹдјҳе…Ҳзә§еҜ
                                                            „еӯҳеҷЁ(дјҳе…Ҳзә§14
                                                            ).
    4 00000000 000000FF 
                       NVIC_PENDSV_PRI
                               EQU              0xFF        ; PendSVдјҳе…Ҳзә§(ж
                                                            ңҖдҪҺ).
    5 00000000 10000000 
                       NVIC_PENDSVSET
                               EQU              0x10000000  ; PendSVи§ҰеҸ‘еҖј
    6 00000000         
    7 00000000                 PRESERVE8                    ;8еӯ—иҠӮеҜ№йҪҗпјҹ
    8 00000000                 THUMB
    9 00000000         
   10 00000000                 AREA             CODE, CODE, READONLY
   11 00000000         
   12 00000000                 EXTERN           CPU_ExceptStkBase ;дё»е Ҷж Ҳ
   13 00000000         
   14 00000000                 EXTERN           p_TCB_Cur   ;жҢҮеҗ‘TCBзҡ„зҡ„жҢҮ
                                                            й’Ҳ
   15 00000000                 EXTERN           p_TCBHightRdy ;жҢҮеҗ‘жңҖй«ҳдјҳе
                                                            …Ҳзә§д»»еҠЎзҡ„жҢҮй’
                                                            Ҳ
   16 00000000         
   17 00000000                 EXPORT           OSStartHighRdy
   18 00000000                 EXPORT           PendSV_Handler ;PendSVејӮеёёеӨ„
                                                            зҗҶеҮҪж•°
   19 00000000                 EXPORT           OSCtxSw
   20 00000000                 EXPORT           OS_CPU_SR_Save
   21 00000000                 EXPORT           OS_CPU_SR_Restore
   22 00000000         
   23 00000000         OS_CPU_SR_Save                       ;PRIMASK   иҝҷжҳҜдё
                                                            ӘеҸӘжңүеҚ•дёҖжҜ”зү№
                                                            зҡ„еҜ„еӯҳеҷЁгҖӮеңЁе
                                                            ®ғиў«зҪ®1еҗҺпјҢе°ұе
                                                            …іжҺүжүҖжңүеҸҜеұҸи”
                                                            Ҫзҡ„ејӮеёёпјҢеҸӘеү©
                                                            дёӢNMIе’ҢзЎ¬faultеҸ
                                                            Ҝд»Ҙе“Қеә”гҖӮе®ғзҡ„
                                                            зјәзңҒеҖјжҳҜ0пјҢиЎЁ
                                                            зӨәжІЎжңүе…ідёӯж–ӯ
   24 00000000 F3EF 8010       MRS              R0, PRIMASK ;иҜ»еҸ–PRIMASKеҲ°R0
                                                            ,R0дёәиҝ”еӣһеҖј 
   25 00000004 B672            CPSID            I           ;PRIMASK=1,е…ідёӯж–
                                                            ӯ(NMIе’ҢзЎ¬д»¶FAULT
                                                            еҸҜд»Ҙе“Қеә”)
   26 00000006 4770            BX               LR          ;иҝ”еӣһ
   27 00000008         
   28 00000008         OS_CPU_SR_Restore
   29 00000008 F380 8810       MSR              PRIMASK, R0 ;иҜ»еҸ–R0еҲ°PRIMASK
                                                            дёӯ,R0дёәеҸӮж•°
   30 0000000C 4770            BX               LR          ;иҝ”еӣһ



ARM Macro Assembler    Page 2 


   31 0000000E         
   32 0000000E         OSCtxSw
   33 0000000E 4816            LDR              R0,=NVIC_INT_CTRL
   34 00000010 F04F 5180       LDR              R1,=NVIC_PENDSVSET
   35 00000014 6001            STR              R1,[R0]     ;и§ҰеҸ‘PendSV
   36 00000016 4770            BX               LR
   37 00000018         
   38 00000018         OSStartHighRdy                       ; и®ҫзҪ®PendSVзҡ„еј
                                                            Ӯеёёдёӯж–ӯдјҳе…Ҳзә§
                                                            
   39 00000018 4814            LDR              R0,=NVIC_SYSPRI14
   40 0000001A F04F 01FF       LDR              R1,=NVIC_PENDSV_PRI
   41 0000001E 7001            STRB             R1,[R0]
   42 00000020         
   43 00000020 2000            MOVS             R0,#0       ;д»»еҠЎе Ҷж Ҳи®ҫзҪ®
                                                            дёә0
   44 00000022 F380 8809       MSR              PSP,R0      ;PSPжё…йӣ¶пјҢдҪңдёә
                                                            йҰ–ж¬ЎдёҠдёӢж–ҮеҲҮж
                                                            Қўзҡ„ж Үеҝ—
   45 00000026         
   46 00000026 4812            LDR              R0,=CPU_ExceptStkBase ;еҲқе§ӢеҢ
                                                            –е Ҷж ҲдёәCPU_Excep
                                                            tStkBase
   47 00000028 6801            LDR              R1,[R0]     ;R1зҡ„ж•°жҚ®+R2зҡ„ж
                                                            •°жҚ®еҗҲжҲҗдёҖдёӘең
                                                            °еқҖеҖјпјҢиҜҘең°еқҖ
                                                            дёӯеӯҳж”ҫзҡ„ж•°жҚ®и
                                                            өӢеҖјз»ҷR0
   48 0000002A F381 8808       MSR              MSP,R1      ;е°ҶMSPи®ҫдёәжҲ‘д»¬
                                                            дёәе…¶еҲҶй…Қзҡ„еҶ…е
                                                            ӯҳең°еқҖCPU_ExceptS
                                                            tkBase
   49 0000002E         
   50 0000002E 480E            LDR              R0,=NVIC_INT_CTRL
   51 00000030 F04F 5180       LDR              R1,=NVIC_PENDSVSET
   52 00000034 6001            STR              R1,[R0]     ; и§ҰеҸ‘PendSVејӮеё
                                                            ё
   53 00000036         
   54 00000036 B662            CPSIE            I           ;ејҖеҗҜдёӯж–ӯ
   55 00000038         
   56 00000038         
   57 00000038         
   58 00000038         
   59 00000038         
   60 00000038         
   61 00000038         PendSV_Handler
   62 00000038 B672            CPSID            I           ; е…ідёӯж–ӯ
   63 0000003A F3EF 8009       MRS              R0,PSP      ;жҠҠPSPжҢҮй’Ҳзҡ„еҖј
                                                            иөӢз»ҷR0
   64 0000003E B128            CBZ              R0,OS_CPU_PendSV_Handler_nosave
 
                                                            ;еҰӮжһңPSPдёә0и°ғеҲ
                                                            °OS_CPU_PendSV_Hand
                                                            ler_nosave
   65 00000040         
   66 00000040 3820            SUBS             R0,R0,#0x20
   67 00000042 E880 0FF0       STM              R0,{R4-R11} ; е…Ҙж ҲR4-R11
   68 00000046         
   69 00000046 490B            LDR              R1,=p_TCB_Cur ;еңЁиҝҷйҮҢжҲ‘д»¬е



ARM Macro Assembler    Page 3 


                                                            …Ҙж ҲдәҶеҫҲеӨҡеҜ„еӯ
                                                            ҳеҷЁ  ;еҪ“еүҚд»»еҠЎ
                                                            зҡ„жҢҮй’Ҳ
   70 00000048 6809            LDR              R1,[R1]     ;иҝҷдёүеҸҘи®©p_TCB_
                                                            Cur->StkPtrжҢҮеҗ‘ж–
                                                            °зҡ„ж ҲйЎ¶
   71 0000004A 6008            STR              R0,[R1]     ;еҚіp_TCB_Cur->StkP
                                                            tr=SP
   72 0000004C         
   73 0000004C         OS_CPU_PendSV_Handler_nosave
   74 0000004C 4809            LDR              R0,=p_TCB_Cur ;p_TCB_Cur=p_TCBH
                                                            ightRdy
   75 0000004E 490A            LDR              R1,=p_TCBHightRdy
   76 00000050 680A            LDR              R2,[R1]
   77 00000052 6002            STR              R2,[R0]     ;е°ҶR2зҡ„еҖјеҶҷе…Ҙе
                                                            Ҳ°гҖҗR0гҖ‘зҡ„ең°еқҖ
                                                            дёӯ
   78 00000054         
   79 00000054 6810            LDR              R0,[R2]     ;е°Ҷж–°зҡ„ж ҲйЎ¶з»ҷ
                                                            SP,SP=p_TCB_Cur->St
                                                            kPtr
   80 00000056         
   81 00000056 E890 0FF0       LDM              R0,{R4-R11} ; еј№еҮәR4-R11
   82 0000005A 3020            ADDS             R0,R0,#0x20
   83 0000005C         
   84 0000005C F380 8809       MSR              PSP,R0      ;жӣҙж–°PSP;жңүдёӨдё
                                                            Әе Ҷж ҲеҜ„еӯҳеҷЁпјҢ
                                                            дё»е Ҷж ҲжҢҮй’ҲпјҲM
                                                            SPпјүдёҺиҝӣзЁӢе Ҷж 
                                                            ҲжҢҮй’ҲпјҲPSPпјүпјҢ
                                                            иҖҢдё”д»»дёҖж—¶еҲ»е
                                                            ҸӘиғҪдҪҝз”Ёе…¶дёӯзҡ
                                                            „дёҖдёӘгҖӮMSPдёәеӨҚ
                                                            дҪҚеҗҺзјәзңҒдҪҝз”Ёз
                                                            ҡ„е Ҷж ҲжҢҮй’ҲпјҢеј
                                                            Ӯеёёж°ёиҝңдҪҝз”ЁMSP
                                                            пјҢеҰӮжһңжүӢеҠЁејҖе
                                                            җҜPSPпјҢйӮЈд№ҲзәҝзЁ
                                                            ӢдҪҝз”ЁPSPпјҢеҗҰеҲҷ
                                                            д№ҹдҪҝз”ЁMSPгҖӮжҖҺд
                                                            №ҲејҖеҗҜPSPпјҹ
   85 00000060 F04E 0E04       ORR              LR,LR,#0x04 ;зҪ®LRзҡ„дҪҚ2дёә1пј
                                                            ҢйӮЈд№ҲејӮеёёиҝ”еӣһ
                                                            еҗҺпјҢзәҝзЁӢдҪҝз”ЁP
                                                            SP
   86 00000064         
   87 00000064 B662            CPSIE            I           ;ејҖдёӯж–ӯ
   88 00000066         ;йҖҡеёёдёҖдёӘеҮҪж•°и°ғз”ЁеҸҰдёҖдёӘеҮҪж•°ж—¶дјҡдҪҝз”ЁBLжҢ
                       Үд»ӨпјҢиҝҷдёӘжҢҮд»ӨдјҡжҠҠеҪ“еүҚзҡ„PCж”ҫеҲ°LRеҜ„еӯҳеҷЁ
   89 00000066 4770            BX               LR          ;жҠҠLRеҜ„еӯҳеҷЁзҡ„е
                                                            Ҷ…е®№еӨҚеҲ¶еҲ°PCеҜ„
                                                            еӯҳеҷЁйҮҢ пјҢд»ҺиҖҢ
                                                            е®һзҺ°еҮҪж•°зҡ„иҝ”е
                                                            ӣһ
   90 00000068         ;еңЁдёӯж–ӯеҮәзҺ°ж—¶пјҢLRеҜ„еӯҳеҷЁдјҡи®ҫдёәдёҖдёӘзү№ж®Ҡзҡ
                       „еҖјпјҲеҮҪж•°иҝ”еӣһең°еқҖпјүпјҢиҖҢдёҚжҳҜдёӯж–ӯд№ӢеүҚзҡ„P
                       CеҜ„еӯҳеҷЁеҶ…е®№пјҢиҝҷж ·пјҢеҪ“дёӯж–ӯеҮҪж•°дҪҝз”ЁBX LRжҢ
                       Үд»Өиҝ”еӣһж—¶ пјҢCPUе°ұиғҪеӨҹзҹҘйҒ“жҳҜдёӯж–ӯеҮҪж•°иҝ”еӣһ
                       дәҶ



ARM Macro Assembler    Page 4 


   91 00000068         
   92 00000068                 END
              E000ED04 
              E000ED22 
              00000000 
              00000000 
              00000000 
Command Line: --debug --xref --diag_suppress=9931 --cpu=Cortex-M4.fp --apcs=int
erwork --depend=.\output\core.d -o.\output\core.o -I.\RTE\__04_OS -ID:\keil5\AR
M\PACK\Keil\STM32F4xx_DFP\1.0.8\Device\Include -ID:\keil5\ARM\CMSIS\Include --p
redefine="__UVISION_VERSION SETA 524" --predefine="STM32F40_41xxx SETA 1" --lis
t=.\output\core.lst _05_Os\core.asm



ARM Macro Assembler    Page 1 Alphabetic symbol ordering
Relocatable symbols

CODE 00000000

Symbol: CODE
   Definitions
      At line 10 in file _05_Os\core.asm
   Uses
      None
Comment: CODE unused
OSCtxSw 0000000E

Symbol: OSCtxSw
   Definitions
      At line 32 in file _05_Os\core.asm
   Uses
      At line 19 in file _05_Os\core.asm
Comment: OSCtxSw used once
OSStartHighRdy 00000018

Symbol: OSStartHighRdy
   Definitions
      At line 38 in file _05_Os\core.asm
   Uses
      At line 17 in file _05_Os\core.asm
Comment: OSStartHighRdy used once
OS_CPU_PendSV_Handler_nosave 0000004C

Symbol: OS_CPU_PendSV_Handler_nosave
   Definitions
      At line 73 in file _05_Os\core.asm
   Uses
      At line 64 in file _05_Os\core.asm
Comment: OS_CPU_PendSV_Handler_nosave used once
OS_CPU_SR_Restore 00000008

Symbol: OS_CPU_SR_Restore
   Definitions
      At line 28 in file _05_Os\core.asm
   Uses
      At line 21 in file _05_Os\core.asm
Comment: OS_CPU_SR_Restore used once
OS_CPU_SR_Save 00000000

Symbol: OS_CPU_SR_Save
   Definitions
      At line 23 in file _05_Os\core.asm
   Uses
      At line 20 in file _05_Os\core.asm
Comment: OS_CPU_SR_Save used once
PendSV_Handler 00000038

Symbol: PendSV_Handler
   Definitions
      At line 61 in file _05_Os\core.asm
   Uses
      At line 18 in file _05_Os\core.asm
Comment: PendSV_Handler used once
7 symbols



ARM Macro Assembler    Page 1 Alphabetic symbol ordering
Absolute symbols

NVIC_INT_CTRL E000ED04

Symbol: NVIC_INT_CTRL
   Definitions
      At line 2 in file _05_Os\core.asm
   Uses
      At line 33 in file _05_Os\core.asm
      At line 50 in file _05_Os\core.asm

NVIC_PENDSVSET 10000000

Symbol: NVIC_PENDSVSET
   Definitions
      At line 5 in file _05_Os\core.asm
   Uses
      At line 34 in file _05_Os\core.asm
      At line 51 in file _05_Os\core.asm

NVIC_PENDSV_PRI 000000FF

Symbol: NVIC_PENDSV_PRI
   Definitions
      At line 4 in file _05_Os\core.asm
   Uses
      At line 40 in file _05_Os\core.asm
Comment: NVIC_PENDSV_PRI used once
NVIC_SYSPRI14 E000ED22

Symbol: NVIC_SYSPRI14
   Definitions
      At line 3 in file _05_Os\core.asm
   Uses
      At line 39 in file _05_Os\core.asm
Comment: NVIC_SYSPRI14 used once
4 symbols



ARM Macro Assembler    Page 1 Alphabetic symbol ordering
External symbols

CPU_ExceptStkBase 00000000

Symbol: CPU_ExceptStkBase
   Definitions
      At line 12 in file _05_Os\core.asm
   Uses
      At line 46 in file _05_Os\core.asm
Comment: CPU_ExceptStkBase used once
p_TCBHightRdy 00000000

Symbol: p_TCBHightRdy
   Definitions
      At line 15 in file _05_Os\core.asm
   Uses
      At line 75 in file _05_Os\core.asm
Comment: p_TCBHightRdy used once
p_TCB_Cur 00000000

Symbol: p_TCB_Cur
   Definitions
      At line 14 in file _05_Os\core.asm
   Uses
      At line 69 in file _05_Os\core.asm
      At line 74 in file _05_Os\core.asm

3 symbols
349 symbols in table
